target datalayout = "e-m:e-p270:32:32-p271:32:32-p272:64:64-i64:64-i128:128-f80:128-n8:16:32:64-S128"
target triple = "x86_64-pc-linux-gnu"

%"struct.duckdb::LogicalType" = type { i8, i8, %"class.duckdb::shared_ptr.168" }
%"class.duckdb::shared_ptr.168" = type { %"class.std::shared_ptr.169" }
%"class.std::shared_ptr.169" = type { %"class.std::__shared_ptr.170" }
%"class.std::__shared_ptr.170" = type { ptr, %"class.std::__shared_count" }
%"class.std::__shared_count" = type { ptr }
%"class.duckdb::ColumnReader" = type { ptr, ptr, ptr, i64, i8, ptr, ptr, i64, i64, i64, %"class.duckdb::shared_ptr", %"class.duckdb::ResizeableBuffer", i32, %"class.duckdb::unique_ptr.11", %"class.duckdb::unique_ptr.11", %"class.duckdb::DictionaryDecoder", %"class.duckdb::DeltaBinaryPackedDecoder", %"class.duckdb::RLEDecoder", %"class.duckdb::DeltaLengthByteArrayDecoder", %"class.duckdb::DeltaByteArrayDecoder", %"class.duckdb::ByteStreamSplitDecoder", [2 x %"class.duckdb::ResizeableBuffer"] }
%"class.duckdb::shared_ptr" = type { %"class.std::shared_ptr" }
%"class.std::shared_ptr" = type { %"class.std::__shared_ptr" }
%"class.std::__shared_ptr" = type { ptr, %"class.std::__shared_count" }
%"class.duckdb::ResizeableBuffer" = type { %"class.duckdb::ByteBuffer", %"class.duckdb::AllocatedData", i64 }
%"class.duckdb::ByteBuffer" = type { ptr, i64 }
%"class.duckdb::AllocatedData" = type { %"class.duckdb::optional_ptr", ptr, i64 }
%"class.duckdb::optional_ptr" = type { ptr }
%"class.duckdb::unique_ptr.11" = type { %"class.std::unique_ptr.12" }
%"class.std::unique_ptr.12" = type { %"struct.std::__uniq_ptr_data.13" }
%"struct.std::__uniq_ptr_data.13" = type { %"class.std::__uniq_ptr_impl.14" }
%"class.std::__uniq_ptr_impl.14" = type { %"class.std::tuple.15" }
%"class.std::tuple.15" = type { %"struct.std::_Tuple_impl.16" }
%"struct.std::_Tuple_impl.16" = type { %"struct.std::_Head_base.19" }
%"struct.std::_Head_base.19" = type { ptr }
%"class.duckdb::DictionaryDecoder" = type { ptr, ptr, %"class.duckdb::unique_ptr.11", %"struct.duckdb::SelectionVector", %"struct.duckdb::SelectionVector", i64, %"class.duckdb::unique_ptr.24", %"class.duckdb::unique_ptr.33", i64, i8, %"class.std::__cxx11::basic_string" }
%"struct.duckdb::SelectionVector" = type { ptr, %"class.duckdb::shared_ptr.20" }
%"class.duckdb::shared_ptr.20" = type { %"class.std::shared_ptr.21" }
%"class.std::shared_ptr.21" = type { %"class.std::__shared_ptr.22" }
%"class.std::__shared_ptr.22" = type { ptr, %"class.std::__shared_count" }
%"class.duckdb::unique_ptr.24" = type { %"class.std::unique_ptr.25" }
%"class.std::unique_ptr.25" = type { %"struct.std::__uniq_ptr_data.26" }
%"struct.std::__uniq_ptr_data.26" = type { %"class.std::__uniq_ptr_impl.27" }
%"class.std::__uniq_ptr_impl.27" = type { %"class.std::tuple.28" }
%"class.std::tuple.28" = type { %"struct.std::_Tuple_impl.29" }
%"struct.std::_Tuple_impl.29" = type { %"struct.std::_Head_base.32" }
%"struct.std::_Head_base.32" = type { ptr }
%"class.duckdb::unique_ptr.33" = type { %"class.std::unique_ptr.34" }
%"class.std::unique_ptr.34" = type { %"struct.std::__uniq_ptr_data.35" }
%"struct.std::__uniq_ptr_data.35" = type { %"class.std::__uniq_ptr_impl.36" }
%"class.std::__uniq_ptr_impl.36" = type { %"class.std::tuple.37" }
%"class.std::tuple.37" = type { %"struct.std::_Tuple_impl.38" }
%"struct.std::_Tuple_impl.38" = type { %"struct.std::_Head_base.41" }
%"struct.std::_Head_base.41" = type { ptr }
%"class.std::__cxx11::basic_string" = type { %"struct.std::__cxx11::basic_string<char>::_Alloc_hider", i64, %union.anon }
%"struct.std::__cxx11::basic_string<char>::_Alloc_hider" = type { ptr }
%union.anon = type { i64, [8 x i8] }
%"class.duckdb::DeltaBinaryPackedDecoder" = type { ptr, ptr, %"class.duckdb::unique_ptr.42" }
%"class.duckdb::unique_ptr.42" = type { %"class.std::unique_ptr.43" }
%"class.std::unique_ptr.43" = type { %"struct.std::__uniq_ptr_data.44" }
%"struct.std::__uniq_ptr_data.44" = type { %"class.std::__uniq_ptr_impl.45" }
%"class.std::__uniq_ptr_impl.45" = type { %"class.std::tuple.46" }
%"class.std::tuple.46" = type { %"struct.std::_Tuple_impl.47" }
%"struct.std::_Tuple_impl.47" = type { %"struct.std::_Head_base.50" }
%"struct.std::_Head_base.50" = type { ptr }
%"class.duckdb::RLEDecoder" = type { ptr, ptr, %"class.duckdb::unique_ptr.11" }
%"class.duckdb::DeltaLengthByteArrayDecoder" = type { ptr, ptr, i64, i64 }
%"class.duckdb::DeltaByteArrayDecoder" = type { ptr, %"class.duckdb::unique_ptr.24", i64, i64 }
%"class.duckdb::ByteStreamSplitDecoder" = type { ptr, ptr, %"class.duckdb::unique_ptr.51" }
%"class.duckdb::unique_ptr.51" = type { %"class.std::unique_ptr.52" }
%"class.std::unique_ptr.52" = type { %"struct.std::__uniq_ptr_data.53" }
%"struct.std::__uniq_ptr_data.53" = type { %"class.std::__uniq_ptr_impl.54" }
%"class.std::__uniq_ptr_impl.54" = type { %"class.std::tuple.55" }
%"class.std::tuple.55" = type { %"struct.std::_Tuple_impl.56" }
%"struct.std::_Tuple_impl.56" = type { %"struct.std::_Head_base.59" }
%"struct.std::_Head_base.59" = type { ptr }
%"class.duckdb::Vector" = type { i8, %"struct.duckdb::LogicalType", ptr, %"struct.duckdb::ValidityMask", %"class.duckdb::shared_ptr.206", %"class.duckdb::shared_ptr.206" }
%"struct.duckdb::ValidityMask" = type { %"struct.duckdb::TemplatedValidityMask" }
%"struct.duckdb::TemplatedValidityMask" = type { ptr, %"class.duckdb::shared_ptr.202", i64 }
%"class.duckdb::shared_ptr.202" = type { %"class.std::shared_ptr.203" }
%"class.std::shared_ptr.203" = type { %"class.std::__shared_ptr.204" }
%"class.std::__shared_ptr.204" = type { ptr, %"class.std::__shared_count" }
%"class.duckdb::shared_ptr.206" = type { %"class.std::shared_ptr.207" }
%"class.std::shared_ptr.207" = type { %"class.std::__shared_ptr.208" }
%"class.std::__shared_ptr.208" = type { ptr, %"class.std::__shared_count" }
%"class.duckdb::RowNumberColumnReader" = type { %"class.duckdb::ColumnReader", i64 }

; Function Attrs: inlinehint mustprogress nounwind uwtable
define linkonce_odr noundef ptr @_ZN6duckdb14ConstantVector7GetDataERNS_6VectorE(ptr noundef nonnull align 8 dereferenceable(104) %0) #5 comdat align 2 {
  %2 = alloca ptr, align 8
  store ptr %0, ptr %2, align 8, !tbaa !211
  %3 = load ptr, ptr %2, align 8, !tbaa !211
  %4 = getelementptr inbounds nuw %"class.duckdb::Vector", ptr %3, i32 0, i32 2
  %5 = load ptr, ptr %4, align 8, !tbaa !712
  ret ptr %5
}

; Function Attrs: inlinehint mustprogress nounwind uwtable
define linkonce_odr noundef ptr @_ZN6duckdb14ConstantVector7GetDataIlEEPT_RNS_6VectorE(ptr noundef nonnull align 8 dereferenceable(104) %0) #5 comdat align 2 {
  %2 = alloca ptr, align 8
  store ptr %0, ptr %2, align 8, !tbaa !211
  %3 = load ptr, ptr %2, align 8, !tbaa !211
  %4 = call noundef ptr @_ZN6duckdb14ConstantVector7GetDataERNS_6VectorE(ptr noundef nonnull align 8 dereferenceable(104) %3)
  ret ptr %4
}

; Function Attrs: mustprogress nounwind uwtable
define linkonce_odr noundef i64 @_ZN6duckdb17UnsafeNumericCastIlmvEET_T0_(i64 noundef %0) #7 comdat {
  %2 = alloca i64, align 8
  store i64 %0, ptr %2, align 8, !tbaa !206
  %3 = load i64, ptr %2, align 8, !tbaa !206
  ret i64 %3
}

; Function Attrs: inlinehint mustprogress uwtable
define linkonce_odr noundef ptr @_ZN6duckdb10FlatVector7GetDataIlEEPT_RNS_6VectorE(ptr noundef nonnull align 8 dereferenceable(104) %0) #8 comdat align 2 {
  %2 = alloca ptr, align 8
  store ptr %0, ptr %2, align 8, !tbaa !211
  %3 = load ptr, ptr %2, align 8, !tbaa !211
  %4 = call noundef ptr @_ZN6duckdb14ConstantVector7GetDataIlEEPT_RNS_6VectorE(ptr noundef nonnull align 8 dereferenceable(104) %3)
  ret ptr %4
}

; Function Attrs: mustprogress uwtable
define noundef i64 @_ZN6duckdb21RowNumberColumnReader4ReadEmPhS1_RNS_6VectorE(ptr noundef nonnull align 8 dereferenceable(552) %0, i64 noundef %1, ptr noundef %2, ptr noundef %3, ptr noundef nonnull align 8 dereferenceable(104) %4) unnamed_addr #4 align 2 {
  %6 = alloca ptr, align 8
  %7 = alloca i64, align 8
  %8 = alloca ptr, align 8
  %9 = alloca ptr, align 8
  %10 = alloca ptr, align 8
  %11 = alloca ptr, align 8
  %12 = alloca i64, align 8
  store ptr %0, ptr %6, align 8, !tbaa !330
  store i64 %1, ptr %7, align 8, !tbaa !206
  store ptr %2, ptr %8, align 8, !tbaa !210
  store ptr %3, ptr %9, align 8, !tbaa !210
  store ptr %4, ptr %10, align 8, !tbaa !211
  %13 = load ptr, ptr %6, align 8
  call void @llvm.lifetime.start.p0(i64 8, ptr %11) #3
  %14 = load ptr, ptr %10, align 8, !tbaa !211
  %15 = call noundef ptr @_ZN6duckdb10FlatVector7GetDataIlEEPT_RNS_6VectorE(ptr noundef nonnull align 8 dereferenceable(104) %14)
  store ptr %15, ptr %11, align 8, !tbaa !352
  call void @llvm.lifetime.start.p0(i64 8, ptr %12) #3
  store i64 0, ptr %12, align 8, !tbaa !206
  br label %16

16:                                               ; preds = %29, %5
  %17 = load i64, ptr %12, align 8, !tbaa !206
  %18 = load i64, ptr %7, align 8, !tbaa !206
  %19 = icmp ult i64 %17, %18
  br i1 %19, label %21, label %20

20:                                               ; preds = %16
  call void @llvm.lifetime.end.p0(i64 8, ptr %12) #3
  br label %32

21:                                               ; preds = %16
  %22 = getelementptr inbounds nuw %"class.duckdb::RowNumberColumnReader", ptr %13, i32 0, i32 1
  %23 = load i64, ptr %22, align 8, !tbaa !332
  %24 = add i64 %23, 1
  store i64 %24, ptr %22, align 8, !tbaa !332
  %25 = call noundef i64 @_ZN6duckdb17UnsafeNumericCastIlmvEET_T0_(i64 noundef %23)
  %26 = load ptr, ptr %11, align 8, !tbaa !352
  %27 = load i64, ptr %12, align 8, !tbaa !206
  %28 = getelementptr inbounds nuw i64, ptr %26, i64 %27
  store i64 %25, ptr %28, align 8, !tbaa !206
  br label %29

29:                                               ; preds = %21
  %30 = load i64, ptr %12, align 8, !tbaa !206
  %31 = add i64 %30, 1
  store i64 %31, ptr %12, align 8, !tbaa !206
  br label %16, !llvm.loop !353

32:                                               ; preds = %20
  %33 = load i64, ptr %7, align 8, !tbaa !206
  call void @llvm.lifetime.end.p0(i64 8, ptr %11) #3
  ret i64 %33
}