; Function Attrs: mustprogress nofree norecurse nosync nounwind memory(write, argmem: readwrite, inaccessiblemem: none) uwtable
define noundef i64 @_ZN6duckdb21RowNumberColumnReader4ReadEmPhS1_RNS_6VectorE(ptr noundef nonnull align 8 captures(none) dereferenceable(552) %0, i64 noundef returned %1, ptr readnone captures(none) %2, ptr readnone captures(none) %3, ptr noundef nonnull readonly align 8 captures(none) dereferenceable(104) %4) unnamed_addr #11 align 2 {
  %6 = getelementptr inbounds nuw i8, ptr %4, i64 32
  %7 = load ptr, ptr %6, align 8, !tbaa !283
  %.not = icmp eq i64 %1, 0
  br i1 %.not, label %._crit_edge, label %.lr.ph

.lr.ph:                                           ; preds = %5
  %8 = getelementptr inbounds nuw i8, ptr %0, i64 544
  br label %9

._crit_edge:                                      ; preds = %9, %5
  ret i64 %1

9:                                                ; preds = %.lr.ph, %9
  %.08 = phi i64 [ 0, %.lr.ph ], [ %13, %9 ]
  %10 = load i64, ptr %8, align 8, !tbaa !327
  %11 = add i64 %10, 1
  store i64 %11, ptr %8, align 8, !tbaa !327
  %12 = getelementptr inbounds nuw i64, ptr %7, i64 %.08
  store i64 %10, ptr %12, align 8, !tbaa !216
  %13 = add nuw i64 %.08, 1
  %exitcond.not = icmp eq i64 %13, %1
  br i1 %exitcond.not, label %._crit_edge, label %9, !llvm.loop !349
}